; Function Attrs: mustprogress uwtable
define internal void @_ZN9grpc_core12_GLOBAL__N_120Chttp2ServerListener25TcpServerShutdownCompleteEPvN4absl12lts_202308026StatusE(ptr noundef %arg, ptr nocapture readnone %0) #3 align 2 personality ptr @__gxx_personality_v0 {
entry:
  %channelz_listen_socket_ = getelementptr inbounds i8, ptr %arg, i64 336
  %1 = load ptr, ptr %channelz_listen_socket_, align 8
  store ptr null, ptr %channelz_listen_socket_, align 8
  %cmp.not.i = icmp eq ptr %1, null
  br i1 %cmp.not.i, label %delete.end, label %if.then.i

if.then.i:                                        ; preds = %entry
  %refs_.i.i = getelementptr inbounds i8, ptr %1, i64 8
  %2 = atomicrmw sub ptr %refs_.i.i, i64 1 acq_rel, align 8
  %cmp.i.i.i = icmp eq i64 %2, 1
  br i1 %cmp.i.i.i, label %if.then.i.i, label %delete.end

if.then.i.i:                                      ; preds = %if.then.i
  %vtable.i.i.i = load ptr, ptr %1, align 8
  %vfn.i.i.i = getelementptr inbounds i8, ptr %vtable.i.i.i, i64 8
  %3 = load ptr, ptr %vfn.i.i.i, align 8
  tail call void %3(ptr noundef nonnull align 8 dereferenceable(64) %1) #25
  br label %delete.end

delete.end:                                       ; preds = %entry, %if.then.i, %if.then.i.i
  %vtable = load ptr, ptr %arg, align 8
  %vfn = getelementptr inbounds i8, ptr %vtable, i64 16
  %4 = load ptr, ptr %vfn, align 8
  tail call void %4(ptr noundef nonnull align 8 dereferenceable(360) %arg) #25
  ret void
}